target datalayout = "e-m:e-p270:32:32-p271:32:32-p272:64:64-i64:64-i128:128-f80:128-n8:16:32:64-S128"
target triple = "x86_64-pc-linux-gnu"

%struct.Vec_Int_t_ = type { i32, i32, ptr }
%struct.Vec_Str_t_ = type { i32, i32, ptr }

@.str = private unnamed_addr constant [4 x i8] c" 0\0A\00", align 1
@.str.1 = private unnamed_addr constant [4 x i8] c" 1\0A\00", align 1

; Function Attrs: inlinehint nounwind uwtable
define internal void @Vec_StrGrow(ptr noundef %0, i32 noundef %1) #4 {
  %3 = alloca ptr, align 8
  %4 = alloca i32, align 4
  store ptr %0, ptr %3, align 8, !tbaa !34
  store i32 %1, ptr %4, align 4, !tbaa !11
  %5 = load ptr, ptr %3, align 8, !tbaa !34
  %6 = getelementptr inbounds nuw %struct.Vec_Str_t_, ptr %5, i32 0, i32 0
  %7 = load i32, ptr %6, align 8, !tbaa !40
  %8 = load i32, ptr %4, align 4, !tbaa !11
  %9 = icmp sge i32 %7, %8
  br i1 %9, label %10, label %11

10:                                               ; preds = %2
  br label %36

11:                                               ; preds = %2
  %12 = load ptr, ptr %3, align 8, !tbaa !34
  %13 = getelementptr inbounds nuw %struct.Vec_Str_t_, ptr %12, i32 0, i32 2
  %14 = load ptr, ptr %13, align 8, !tbaa !41
  %15 = icmp ne ptr %14, null
  br i1 %15, label %16, label %24

16:                                               ; preds = %11
  %17 = load ptr, ptr %3, align 8, !tbaa !34
  %18 = getelementptr inbounds nuw %struct.Vec_Str_t_, ptr %17, i32 0, i32 2
  %19 = load ptr, ptr %18, align 8, !tbaa !41
  %20 = load i32, ptr %4, align 4, !tbaa !11
  %21 = sext i32 %20 to i64
  %22 = mul i64 1, %21
  %23 = call ptr @realloc(ptr noundef %19, i64 noundef %22) #11
  br label %29

24:                                               ; preds = %11
  %25 = load i32, ptr %4, align 4, !tbaa !11
  %26 = sext i32 %25 to i64
  %27 = mul i64 1, %26
  %28 = call noalias ptr @malloc(i64 noundef %27) #12
  br label %29

29:                                               ; preds = %24, %16
  %30 = phi ptr [ %23, %16 ], [ %28, %24 ]
  %31 = load ptr, ptr %3, align 8, !tbaa !34
  %32 = getelementptr inbounds nuw %struct.Vec_Str_t_, ptr %31, i32 0, i32 2
  store ptr %30, ptr %32, align 8, !tbaa !41
  %33 = load i32, ptr %4, align 4, !tbaa !11
  %34 = load ptr, ptr %3, align 8, !tbaa !34
  %35 = getelementptr inbounds nuw %struct.Vec_Str_t_, ptr %34, i32 0, i32 0
  store i32 %33, ptr %35, align 8, !tbaa !40
  br label %36

36:                                               ; preds = %29, %10
  ret void
}

; Function Attrs: inlinehint nounwind uwtable
define internal void @Vec_StrPrintStr(ptr noundef %0, ptr noundef %1) #4 {
  %3 = alloca ptr, align 8
  %4 = alloca ptr, align 8
  %5 = alloca i32, align 4
  %6 = alloca i32, align 4
  store ptr %0, ptr %3, align 8, !tbaa !34
  store ptr %1, ptr %4, align 8, !tbaa !3
  call void @llvm.lifetime.start.p0(i64 4, ptr %5) #9
  call void @llvm.lifetime.start.p0(i64 4, ptr %6) #9
  %7 = load ptr, ptr %4, align 8, !tbaa !3
  %8 = call i64 @strlen(ptr noundef %7) #10
  %9 = trunc i64 %8 to i32
  store i32 %9, ptr %6, align 4, !tbaa !11
  store i32 0, ptr %5, align 4, !tbaa !11
  br label %10

10:                                               ; preds = %21, %2
  %11 = load i32, ptr %5, align 4, !tbaa !11
  %12 = load i32, ptr %6, align 4, !tbaa !11
  %13 = icmp slt i32 %11, %12
  br i1 %13, label %14, label %24

14:                                               ; preds = %10
  %15 = load ptr, ptr %3, align 8, !tbaa !34
  %16 = load ptr, ptr %4, align 8, !tbaa !3
  %17 = load i32, ptr %5, align 4, !tbaa !11
  %18 = sext i32 %17 to i64
  %19 = getelementptr inbounds i8, ptr %16, i64 %18
  %20 = load i8, ptr %19, align 1, !tbaa !8
  call void @Vec_StrPush(ptr noundef %15, i8 noundef signext %20)
  br label %21

21:                                               ; preds = %14
  %22 = load i32, ptr %5, align 4, !tbaa !11
  %23 = add nsw i32 %22, 1
  store i32 %23, ptr %5, align 4, !tbaa !11
  br label %10, !llvm.loop !58

24:                                               ; preds = %10
  call void @llvm.lifetime.end.p0(i64 4, ptr %6) #9
  call void @llvm.lifetime.end.p0(i64 4, ptr %5) #9
  ret void
}

; Function Attrs: nounwind uwtable
define void @Kit_PlaComplement(ptr noundef %0) #0 {
  %2 = alloca ptr, align 8
  %3 = alloca ptr, align 8
  store ptr %0, ptr %2, align 8, !tbaa !3
  call void @llvm.lifetime.start.p0(i64 8, ptr %3) #9
  %4 = load ptr, ptr %2, align 8, !tbaa !3
  store ptr %4, ptr %3, align 8, !tbaa !3
  br label %5

5:                                                ; preds = %56, %1
  %6 = load ptr, ptr %3, align 8, !tbaa !3
  %7 = load i8, ptr %6, align 1, !tbaa !8
  %8 = icmp ne i8 %7, 0
  br i1 %8, label %9, label %59

9:                                                ; preds = %5
  %10 = load ptr, ptr %3, align 8, !tbaa !3
  %11 = load i8, ptr %10, align 1, !tbaa !8
  %12 = sext i8 %11 to i32
  %13 = icmp eq i32 %12, 10
  br i1 %13, label %14, label %55

14:                                               ; preds = %9
  %15 = load ptr, ptr %3, align 8, !tbaa !3
  %16 = getelementptr inbounds i8, ptr %15, i64 -1
  %17 = load i8, ptr %16, align 1, !tbaa !8
  %18 = sext i8 %17 to i32
  %19 = icmp eq i32 %18, 48
  br i1 %19, label %20, label %23

20:                                               ; preds = %14
  %21 = load ptr, ptr %3, align 8, !tbaa !3
  %22 = getelementptr inbounds i8, ptr %21, i64 -1
  store i8 49, ptr %22, align 1, !tbaa !8
  br label %54

23:                                               ; preds = %14
  %24 = load ptr, ptr %3, align 8, !tbaa !3
  %25 = getelementptr inbounds i8, ptr %24, i64 -1
  %26 = load i8, ptr %25, align 1, !tbaa !8
  %27 = sext i8 %26 to i32
  %28 = icmp eq i32 %27, 49
  br i1 %28, label %29, label %32

29:                                               ; preds = %23
  %30 = load ptr, ptr %3, align 8, !tbaa !3
  %31 = getelementptr inbounds i8, ptr %30, i64 -1
  store i8 48, ptr %31, align 1, !tbaa !8
  br label %53

32:                                               ; preds = %23
  %33 = load ptr, ptr %3, align 8, !tbaa !3
  %34 = getelementptr inbounds i8, ptr %33, i64 -1
  %35 = load i8, ptr %34, align 1, !tbaa !8
  %36 = sext i8 %35 to i32
  %37 = icmp eq i32 %36, 120
  br i1 %37, label %38, label %41

38:                                               ; preds = %32
  %39 = load ptr, ptr %3, align 8, !tbaa !3
  %40 = getelementptr inbounds i8, ptr %39, i64 -1
  store i8 110, ptr %40, align 1, !tbaa !8
  br label %52

41:                                               ; preds = %32
  %42 = load ptr, ptr %3, align 8, !tbaa !3
  %43 = getelementptr inbounds i8, ptr %42, i64 -1
  %44 = load i8, ptr %43, align 1, !tbaa !8
  %45 = sext i8 %44 to i32
  %46 = icmp eq i32 %45, 110
  br i1 %46, label %47, label %50

47:                                               ; preds = %41
  %48 = load ptr, ptr %3, align 8, !tbaa !3
  %49 = getelementptr inbounds i8, ptr %48, i64 -1
  store i8 120, ptr %49, align 1, !tbaa !8
  br label %51

50:                                               ; preds = %41
  br label %51

51:                                               ; preds = %50, %47
  br label %52

52:                                               ; preds = %51, %38
  br label %53

53:                                               ; preds = %52, %29
  br label %54

54:                                               ; preds = %53, %20
  br label %55

55:                                               ; preds = %54, %9
  br label %56

56:                                               ; preds = %55
  %57 = load ptr, ptr %3, align 8, !tbaa !3
  %58 = getelementptr inbounds nuw i8, ptr %57, i32 1
  store ptr %58, ptr %3, align 8, !tbaa !3
  br label %5, !llvm.loop !15

59:                                               ; preds = %5
  call void @llvm.lifetime.end.p0(i64 8, ptr %3) #9
  ret void
}

; Function Attrs: inlinehint nounwind uwtable
define internal ptr @Vec_StrArray(ptr noundef %0) #4 {
  %2 = alloca ptr, align 8
  store ptr %0, ptr %2, align 8, !tbaa !34
  %3 = load ptr, ptr %2, align 8, !tbaa !34
  %4 = getelementptr inbounds nuw %struct.Vec_Str_t_, ptr %3, i32 0, i32 2
  %5 = load ptr, ptr %4, align 8, !tbaa !41
  ret ptr %5
}

; Function Attrs: inlinehint nounwind uwtable
define internal void @Vec_StrPush(ptr noundef %0, i8 noundef signext %1) #4 {
  %3 = alloca ptr, align 8
  %4 = alloca i8, align 1
  store ptr %0, ptr %3, align 8, !tbaa !34
  store i8 %1, ptr %4, align 1, !tbaa !8
  %5 = load ptr, ptr %3, align 8, !tbaa !34
  %6 = getelementptr inbounds nuw %struct.Vec_Str_t_, ptr %5, i32 0, i32 1
  %7 = load i32, ptr %6, align 4, !tbaa !38
  %8 = load ptr, ptr %3, align 8, !tbaa !34
  %9 = getelementptr inbounds nuw %struct.Vec_Str_t_, ptr %8, i32 0, i32 0
  %10 = load i32, ptr %9, align 8, !tbaa !40
  %11 = icmp eq i32 %7, %10
  br i1 %11, label %12, label %26

12:                                               ; preds = %2
  %13 = load ptr, ptr %3, align 8, !tbaa !34
  %14 = getelementptr inbounds nuw %struct.Vec_Str_t_, ptr %13, i32 0, i32 0
  %15 = load i32, ptr %14, align 8, !tbaa !40
  %16 = icmp slt i32 %15, 16
  br i1 %16, label %17, label %19

17:                                               ; preds = %12
  %18 = load ptr, ptr %3, align 8, !tbaa !34
  call void @Vec_StrGrow(ptr noundef %18, i32 noundef 16)
  br label %25

19:                                               ; preds = %12
  %20 = load ptr, ptr %3, align 8, !tbaa !34
  %21 = load ptr, ptr %3, align 8, !tbaa !34
  %22 = getelementptr inbounds nuw %struct.Vec_Str_t_, ptr %21, i32 0, i32 0
  %23 = load i32, ptr %22, align 8, !tbaa !40
  %24 = mul nsw i32 2, %23
  call void @Vec_StrGrow(ptr noundef %20, i32 noundef %24)
  br label %25

25:                                               ; preds = %19, %17
  br label %26

26:                                               ; preds = %25, %2
  %27 = load i8, ptr %4, align 1, !tbaa !8
  %28 = load ptr, ptr %3, align 8, !tbaa !34
  %29 = getelementptr inbounds nuw %struct.Vec_Str_t_, ptr %28, i32 0, i32 2
  %30 = load ptr, ptr %29, align 8, !tbaa !41
  %31 = load ptr, ptr %3, align 8, !tbaa !34
  %32 = getelementptr inbounds nuw %struct.Vec_Str_t_, ptr %31, i32 0, i32 1
  %33 = load i32, ptr %32, align 4, !tbaa !38
  %34 = add nsw i32 %33, 1
  store i32 %34, ptr %32, align 4, !tbaa !38
  %35 = sext i32 %33 to i64
  %36 = getelementptr inbounds i8, ptr %30, i64 %35
  store i8 %27, ptr %36, align 1, !tbaa !8
  ret void
}

; Function Attrs: inlinehint nounwind uwtable
define internal void @Vec_StrAppend(ptr noundef %0, ptr noundef %1) #4 {
  %3 = alloca ptr, align 8
  %4 = alloca ptr, align 8
  store ptr %0, ptr %3, align 8, !tbaa !34
  store ptr %1, ptr %4, align 8, !tbaa !3
  %5 = load ptr, ptr %3, align 8, !tbaa !34
  %6 = load ptr, ptr %4, align 8, !tbaa !3
  call void @Vec_StrPrintStr(ptr noundef %5, ptr noundef %6)
  ret void
}

; Function Attrs: inlinehint nounwind uwtable
define internal void @Vec_StrClear(ptr noundef %0) #4 {
  %2 = alloca ptr, align 8
  store ptr %0, ptr %2, align 8, !tbaa !34
  %3 = load ptr, ptr %2, align 8, !tbaa !34
  %4 = getelementptr inbounds nuw %struct.Vec_Str_t_, ptr %3, i32 0, i32 1
  store i32 0, ptr %4, align 4, !tbaa !38
  ret void
}

; Function Attrs: inlinehint nounwind uwtable
define internal i32 @Vec_IntEntry(ptr noundef %0, i32 noundef %1) #4 {
  %3 = alloca ptr, align 8
  %4 = alloca i32, align 4
  store ptr %0, ptr %3, align 8, !tbaa !20
  store i32 %1, ptr %4, align 4, !tbaa !11
  %5 = load ptr, ptr %3, align 8, !tbaa !20
  %6 = getelementptr inbounds nuw %struct.Vec_Int_t_, ptr %5, i32 0, i32 2
  %7 = load ptr, ptr %6, align 8, !tbaa !27
  %8 = load i32, ptr %4, align 4, !tbaa !11
  %9 = sext i32 %8 to i64
  %10 = getelementptr inbounds i32, ptr %7, i64 %9
  %11 = load i32, ptr %10, align 4, !tbaa !11
  ret i32 %11
}

; Function Attrs: inlinehint nounwind uwtable
define internal i32 @Vec_IntSize(ptr noundef %0) #4 {
  %2 = alloca ptr, align 8
  store ptr %0, ptr %2, align 8, !tbaa !20
  %3 = load ptr, ptr %2, align 8, !tbaa !20
  %4 = getelementptr inbounds nuw %struct.Vec_Int_t_, ptr %3, i32 0, i32 1
  %5 = load i32, ptr %4, align 4, !tbaa !24
  ret i32 %5
}

; Function Attrs: nounwind uwtable
define ptr @Kit_PlaFromTruthNew(ptr noundef %0, i32 noundef %1, ptr noundef %2, ptr noundef %3) #0 {
  %5 = alloca ptr, align 8
  %6 = alloca ptr, align 8
  %7 = alloca i32, align 4
  %8 = alloca ptr, align 8
  %9 = alloca ptr, align 8
  %10 = alloca ptr, align 8
  %11 = alloca i32, align 4
  %12 = alloca i32, align 4
  store ptr %0, ptr %6, align 8, !tbaa !31
  store i32 %1, ptr %7, align 4, !tbaa !11
  store ptr %2, ptr %8, align 8, !tbaa !20
  store ptr %3, ptr %9, align 8, !tbaa !34
  call void @llvm.lifetime.start.p0(i64 8, ptr %10) #9
  call void @llvm.lifetime.start.p0(i64 4, ptr %11) #9
  %13 = load ptr, ptr %6, align 8, !tbaa !31
  %14 = load i32, ptr %7, align 4, !tbaa !11
  %15 = load ptr, ptr %8, align 8, !tbaa !20
  %16 = call i32 @Kit_TruthIsop(ptr noundef %13, i32 noundef %14, ptr noundef %15, i32 noundef 1)
  store i32 %16, ptr %11, align 4, !tbaa !11
  %17 = load ptr, ptr %8, align 8, !tbaa !20
  %18 = call i32 @Vec_IntSize(ptr noundef %17)
  %19 = icmp eq i32 %18, 0
  br i1 %19, label %28, label %20

20:                                               ; preds = %4
  %21 = load ptr, ptr %8, align 8, !tbaa !20
  %22 = call i32 @Vec_IntSize(ptr noundef %21)
  %23 = icmp eq i32 %22, 1
  br i1 %23, label %24, label %38

24:                                               ; preds = %20
  %25 = load ptr, ptr %8, align 8, !tbaa !20
  %26 = call i32 @Vec_IntEntry(ptr noundef %25, i32 noundef 0)
  %27 = icmp eq i32 %26, 0
  br i1 %27, label %28, label %38

28:                                               ; preds = %24, %4
  %29 = load ptr, ptr %9, align 8, !tbaa !34
  call void @Vec_StrClear(ptr noundef %29)
  %30 = load ptr, ptr %9, align 8, !tbaa !34
  %31 = load ptr, ptr %8, align 8, !tbaa !20
  %32 = call i32 @Vec_IntSize(ptr noundef %31)
  %33 = icmp eq i32 %32, 0
  %34 = select i1 %33, ptr @.str, ptr @.str.1
  call void @Vec_StrAppend(ptr noundef %30, ptr noundef %34)
  %35 = load ptr, ptr %9, align 8, !tbaa !34
  call void @Vec_StrPush(ptr noundef %35, i8 noundef signext 0)
  %36 = load ptr, ptr %9, align 8, !tbaa !34
  %37 = call ptr @Vec_StrArray(ptr noundef %36)
  store ptr %37, ptr %5, align 8
  store i32 1, ptr %12, align 4
  br label %58

38:                                               ; preds = %24, %20
  %39 = load ptr, ptr %9, align 8, !tbaa !34
  %40 = load i32, ptr %7, align 4, !tbaa !11
  %41 = load ptr, ptr %8, align 8, !tbaa !20
  %42 = call ptr @Kit_PlaFromIsop(ptr noundef %39, i32 noundef %40, ptr noundef %41)
  store ptr %42, ptr %10, align 8, !tbaa !3
  %43 = load i32, ptr %11, align 4, !tbaa !11
  %44 = icmp ne i32 %43, 0
  br i1 %44, label %45, label %47

45:                                               ; preds = %38
  %46 = load ptr, ptr %10, align 8, !tbaa !3
  call void @Kit_PlaComplement(ptr noundef %46)
  br label %47

47:                                               ; preds = %45, %38
  %48 = load i32, ptr %7, align 4, !tbaa !11
  %49 = icmp slt i32 %48, 6
  br i1 %49, label %50, label %51

50:                                               ; preds = %47
  br label %56

51:                                               ; preds = %47
  %52 = load i32, ptr %7, align 4, !tbaa !11
  %53 = icmp eq i32 %52, 6
  br i1 %53, label %54, label %55

54:                                               ; preds = %51
  br label %55

55:                                               ; preds = %54, %51
  br label %56

56:                                               ; preds = %55, %50
  %57 = load ptr, ptr %10, align 8, !tbaa !3
  store ptr %57, ptr %5, align 8
  store i32 1, ptr %12, align 4
  br label %58

58:                                               ; preds = %56, %28
  call void @llvm.lifetime.end.p0(i64 4, ptr %11) #9
  call void @llvm.lifetime.end.p0(i64 8, ptr %10) #9
  %59 = load ptr, ptr %5, align 8
  ret ptr %59
}