; Function Attrs: nounwind uwtable
define ptr @Kit_PlaFromTruthNew(ptr noundef %0, i32 noundef %1, ptr noundef %2, ptr noundef captures(none) %3) local_unnamed_addr #3 {
  %5 = tail call i32 @Kit_TruthIsop(ptr noundef %0, i32 noundef %1, ptr noundef %2, i32 noundef 1) #12
  %6 = getelementptr i8, ptr %2, i64 4
  %.val20 = load i32, ptr %6, align 4, !tbaa !12
  switch i32 %.val20, label %67 [
    i32 0, label %.lr.ph.i.i
    i32 1, label %7
  ]

7:                                                ; preds = %4
  %8 = getelementptr i8, ptr %2, i64 8
  %.val21 = load ptr, ptr %8, align 8, !tbaa !17
  %9 = load i32, ptr %.val21, align 4, !tbaa !18
  %10 = icmp eq i32 %9, 0
  br i1 %10, label %.lr.ph.i.i, label %67

.lr.ph.i.i:                                       ; preds = %4, %7
  %11 = phi ptr [ @.str.1, %7 ], [ @.str, %4 ]
  %12 = getelementptr inbounds nuw i8, ptr %3, i64 4
  store i32 0, ptr %12, align 4, !tbaa !26
  %.phi.trans.insert.i.i.i = getelementptr i8, ptr %3, i64 8
  br label %thread-pre-split

thread-pre-split:                                 ; preds = %Vec_StrPush.exit.i.i, %.lr.ph.i.i
  %13 = phi i32 [ 0, %.lr.ph.i.i ], [ %.pr, %Vec_StrPush.exit.i.i ]
  %indvars.iv.i.i = phi i64 [ 0, %.lr.ph.i.i ], [ %indvars.iv.next.i.i, %Vec_StrPush.exit.i.i ]
  %14 = getelementptr inbounds nuw i8, ptr %11, i64 %indvars.iv.i.i
  %15 = load i8, ptr %14, align 1, !tbaa !3
  %16 = load i32, ptr %3, align 8, !tbaa !29
  %17 = icmp eq i32 %13, %16
  br i1 %17, label %18, label %.Vec_StrGrow.exit10_crit_edge.i.i.i

.Vec_StrGrow.exit10_crit_edge.i.i.i:              ; preds = %thread-pre-split
  %.pre.i.i.i = load ptr, ptr %.phi.trans.insert.i.i.i, align 8, !tbaa !30
  br label %Vec_StrPush.exit.i.i

18:                                               ; preds = %thread-pre-split
  %19 = icmp slt i32 %13, 16
  br i1 %19, label %20, label %27

20:                                               ; preds = %18
  %21 = load ptr, ptr %.phi.trans.insert.i.i.i, align 8, !tbaa !30
  %.not9.i.i.i.i = icmp eq ptr %21, null
  br i1 %.not9.i.i.i.i, label %24, label %22

22:                                               ; preds = %20
  %23 = tail call dereferenceable_or_null(16) ptr @realloc(ptr noundef nonnull %21, i64 noundef 16) #13
  br label %Vec_StrGrow.exit.i.i.i

24:                                               ; preds = %20
  %25 = tail call noalias dereferenceable_or_null(16) ptr @malloc(i64 noundef 16) #14
  br label %Vec_StrGrow.exit.i.i.i

Vec_StrGrow.exit.i.i.i:                           ; preds = %24, %22
  %26 = phi ptr [ %23, %22 ], [ %25, %24 ]
  store ptr %26, ptr %.phi.trans.insert.i.i.i, align 8, !tbaa !30
  store i32 16, ptr %3, align 8, !tbaa !29
  br label %Vec_StrPush.exit.i.i

27:                                               ; preds = %18
  %28 = shl nuw nsw i32 %13, 1
  %29 = load ptr, ptr %.phi.trans.insert.i.i.i, align 8, !tbaa !30
  %.not9.i9.i.i.i = icmp eq ptr %29, null
  %30 = zext nneg i32 %28 to i64
  br i1 %.not9.i9.i.i.i, label %33, label %31

31:                                               ; preds = %27
  %32 = tail call ptr @realloc(ptr noundef nonnull %29, i64 noundef %30) #13
  br label %35

33:                                               ; preds = %27
  %34 = tail call noalias ptr @malloc(i64 noundef %30) #14
  br label %35

35:                                               ; preds = %33, %31
  %36 = phi ptr [ %32, %31 ], [ %34, %33 ]
  store ptr %36, ptr %.phi.trans.insert.i.i.i, align 8, !tbaa !30
  store i32 %28, ptr %3, align 8, !tbaa !29
  br label %Vec_StrPush.exit.i.i

Vec_StrPush.exit.i.i:                             ; preds = %35, %Vec_StrGrow.exit.i.i.i, %.Vec_StrGrow.exit10_crit_edge.i.i.i
  %37 = phi ptr [ %.pre.i.i.i, %.Vec_StrGrow.exit10_crit_edge.i.i.i ], [ %36, %35 ], [ %26, %Vec_StrGrow.exit.i.i.i ]
  %38 = load i32, ptr %12, align 4, !tbaa !26
  %39 = add nsw i32 %38, 1
  store i32 %39, ptr %12, align 4, !tbaa !26
  %40 = sext i32 %38 to i64
  %41 = getelementptr inbounds i8, ptr %37, i64 %40
  store i8 %15, ptr %41, align 1, !tbaa !3
  %indvars.iv.next.i.i = add nuw nsw i64 %indvars.iv.i.i, 1
  %exitcond.not.i.i = icmp eq i64 %indvars.iv.next.i.i, 3
  %.pr = load i32, ptr %12, align 4, !tbaa !26
  br i1 %exitcond.not.i.i, label %Vec_StrAppend.exit, label %thread-pre-split, !llvm.loop !33

Vec_StrAppend.exit:                               ; preds = %Vec_StrPush.exit.i.i
  %42 = load i32, ptr %3, align 8, !tbaa !29
  %43 = icmp eq i32 %.pr, %42
  br i1 %43, label %44, label %.Vec_StrGrow.exit10_crit_edge.i

.Vec_StrGrow.exit10_crit_edge.i:                  ; preds = %Vec_StrAppend.exit
  %.pre.i = load ptr, ptr %.phi.trans.insert.i.i.i, align 8, !tbaa !30
  br label %Vec_StrPush.exit

44:                                               ; preds = %Vec_StrAppend.exit
  %45 = icmp slt i32 %.pr, 16
  br i1 %45, label %.thread, label %52

.thread:                                          ; preds = %44
  %46 = load ptr, ptr %.phi.trans.insert.i.i.i, align 8, !tbaa !30
  %.not9.i.i = icmp eq ptr %46, null
  br i1 %.not9.i.i, label %49, label %47

47:                                               ; preds = %.thread
  %48 = tail call dereferenceable_or_null(16) ptr @realloc(ptr noundef nonnull %46, i64 noundef 16) #13
  br label %Vec_StrGrow.exit.i

49:                                               ; preds = %.thread
  %50 = tail call noalias dereferenceable_or_null(16) ptr @malloc(i64 noundef 16) #14
  br label %Vec_StrGrow.exit.i

Vec_StrGrow.exit.i:                               ; preds = %49, %47
  %51 = phi ptr [ %48, %47 ], [ %50, %49 ]
  store ptr %51, ptr %.phi.trans.insert.i.i.i, align 8, !tbaa !30
  store i32 16, ptr %3, align 8, !tbaa !29
  br label %Vec_StrPush.exit

52:                                               ; preds = %44
  %53 = shl nuw nsw i32 %.pr, 1
  %54 = load ptr, ptr %.phi.trans.insert.i.i.i, align 8, !tbaa !30
  %.not9.i9.i = icmp eq ptr %54, null
  %55 = zext nneg i32 %53 to i64
  br i1 %.not9.i9.i, label %58, label %56

56:                                               ; preds = %52
  %57 = tail call ptr @realloc(ptr noundef nonnull %54, i64 noundef %55) #13
  br label %60

58:                                               ; preds = %52
  %59 = tail call noalias ptr @malloc(i64 noundef %55) #14
  br label %60

60:                                               ; preds = %58, %56
  %61 = phi ptr [ %57, %56 ], [ %59, %58 ]
  store ptr %61, ptr %.phi.trans.insert.i.i.i, align 8, !tbaa !30
  store i32 %53, ptr %3, align 8, !tbaa !29
  br label %Vec_StrPush.exit

Vec_StrPush.exit:                                 ; preds = %.Vec_StrGrow.exit10_crit_edge.i, %Vec_StrGrow.exit.i, %60
  %62 = phi ptr [ %.pre.i, %.Vec_StrGrow.exit10_crit_edge.i ], [ %61, %60 ], [ %51, %Vec_StrGrow.exit.i ]
  %63 = load i32, ptr %12, align 4, !tbaa !26
  %64 = add nsw i32 %63, 1
  store i32 %64, ptr %12, align 4, !tbaa !26
  %65 = sext i32 %63 to i64
  %66 = getelementptr inbounds i8, ptr %62, i64 %65
  store i8 0, ptr %66, align 1, !tbaa !3
  %.val22 = load ptr, ptr %.phi.trans.insert.i.i.i, align 8, !tbaa !30
  br label %Kit_PlaComplement.exit

67:                                               ; preds = %4, %7
  %68 = tail call ptr @Kit_PlaFromIsop(ptr noundef %3, i32 noundef %1, ptr noundef nonnull %2)
  %.not = icmp eq i32 %5, 0
  br i1 %.not, label %Kit_PlaComplement.exit, label %.preheader

.preheader:                                       ; preds = %67, %76
  %.0.i = phi ptr [ %77, %76 ], [ %68, %67 ]
  %69 = load i8, ptr %.0.i, align 1, !tbaa !3
  switch i8 %69, label %76 [
    i8 0, label %Kit_PlaComplement.exit
    i8 10, label %70
  ]

70:                                               ; preds = %.preheader
  %71 = getelementptr inbounds i8, ptr %.0.i, i64 -1
  %72 = load i8, ptr %71, align 1, !tbaa !3
  switch i8 %72, label %76 [
    i8 48, label %.sink.split.i
    i8 49, label %73
    i8 120, label %74
    i8 110, label %75
  ]

73:                                               ; preds = %70
  br label %.sink.split.i

74:                                               ; preds = %70
  br label %.sink.split.i

75:                                               ; preds = %70
  br label %.sink.split.i

.sink.split.i:                                    ; preds = %75, %74, %73, %70
  %.sink.i = phi i8 [ 48, %73 ], [ 120, %75 ], [ 110, %74 ], [ 49, %70 ]
  store i8 %.sink.i, ptr %71, align 1, !tbaa !3
  br label %76

76:                                               ; preds = %.sink.split.i, %70, %.preheader
  %77 = getelementptr inbounds nuw i8, ptr %.0.i, i64 1
  br label %.preheader, !llvm.loop !10

Kit_PlaComplement.exit:                           ; preds = %.preheader, %67, %Vec_StrPush.exit
  %.0 = phi ptr [ %.val22, %Vec_StrPush.exit ], [ %68, %67 ], [ %68, %.preheader ]
  ret ptr %.0
}